target datalayout = "e-m:e-p270:32:32-p271:32:32-p272:64:64-i64:64-i128:128-f80:128-n8:16:32:64-S128"
target triple = "x86_64-pc-linux-gnu"

%class.V3GraphVertex = type { ptr, %class.V3ListLinks, %class.V3List, %class.V3List.0, double, i32, i32, %union.anon }
%class.V3ListLinks = type { ptr, ptr }
%class.V3List = type { ptr, ptr }
%class.V3List.0 = type { ptr, ptr }
%union.anon = type { ptr }
%class.V3Graph = type { ptr, %class.V3List.1 }
%class.V3List.1 = type { ptr, ptr }

; Function Attrs: alwaysinline mustprogress uwtable
define linkonce_odr dso_local noundef nonnull align 8 dereferenceable(16) ptr @_ZN6V3ListI13V3GraphVertexXadL_ZNS0_5linksEvEES0_E7toLinksEPKS0_(ptr noundef %0) #8 comdat align 2 {
  %2 = alloca ptr, align 8
  store ptr %0, ptr %2, align 8, !tbaa !4
  %3 = load ptr, ptr %2, align 8, !tbaa !4
  %4 = getelementptr inbounds i8, ptr %3, i64 0
  br i1 false, label %5, label %9

5:                                                ; preds = %1
  %6 = load ptr, ptr %4, align 8, !tbaa !11
  %7 = getelementptr i8, ptr %6, i64 sub (i64 ptrtoint (ptr @_ZN13V3GraphVertex5linksEv to i64), i64 1), !nosanitize !65
  %8 = load ptr, ptr %7, align 8, !nosanitize !65
  br label %10

9:                                                ; preds = %1
  br label %10

10:                                               ; preds = %9, %5
  %11 = phi ptr [ %8, %5 ], [ @_ZN13V3GraphVertex5linksEv, %9 ]
  %12 = call noundef nonnull align 8 dereferenceable(16) ptr %11(ptr noundef nonnull align 8 dereferenceable(80) %4)
  ret ptr %12
}

; Function Attrs: mustprogress nounwind uwtable
define linkonce_odr dso_local void @_ZN11V3ListLinksI13V3GraphVertexED2Ev(ptr noundef nonnull align 8 dereferenceable(16) %0) unnamed_addr #5 comdat align 2 {
  %2 = alloca ptr, align 8
  store ptr %0, ptr %2, align 8, !tbaa !24
  ret void
}

; Function Attrs: mustprogress nounwind uwtable
define linkonce_odr dso_local void @_ZN6V3ListI11V3GraphEdgeXadL_ZNS0_6oLinksEvEES0_ED2Ev(ptr noundef nonnull align 8 dereferenceable(16) %0) unnamed_addr #5 comdat align 2 {
  %2 = alloca ptr, align 8
  store ptr %0, ptr %2, align 8, !tbaa !28
  ret void
}

; Function Attrs: mustprogress nounwind uwtable
define linkonce_odr dso_local void @_ZN6V3ListI11V3GraphEdgeXadL_ZNS0_6iLinksEvEES0_ED2Ev(ptr noundef nonnull align 8 dereferenceable(16) %0) unnamed_addr #5 comdat align 2 {
  %2 = alloca ptr, align 8
  store ptr %0, ptr %2, align 8, !tbaa !32
  ret void
}

; Function Attrs: mustprogress uwtable
define linkonce_odr dso_local void @_ZN6V3ListI13V3GraphVertexXadL_ZNS0_5linksEvEES0_E8linkBackEPKS0_(ptr noundef nonnull align 8 dereferenceable(16) %0, ptr noundef %1) #4 comdat align 2 {
  %3 = alloca ptr, align 8
  %4 = alloca ptr, align 8
  %5 = alloca ptr, align 8
  store ptr %0, ptr %3, align 8, !tbaa !36
  store ptr %1, ptr %4, align 8, !tbaa !4
  %6 = load ptr, ptr %3, align 8
  call void @llvm.lifetime.start.p0(i64 8, ptr %5) #3
  %7 = load ptr, ptr %4, align 8, !tbaa !4
  %8 = call noundef nonnull align 8 dereferenceable(16) ptr @_ZN6V3ListI13V3GraphVertexXadL_ZNS0_5linksEvEES0_E7toLinksEPKS0_(ptr noundef %7)
  store ptr %8, ptr %5, align 8, !tbaa !24
  %9 = load ptr, ptr %5, align 8, !tbaa !24
  %10 = getelementptr inbounds nuw %class.V3ListLinks, ptr %9, i32 0, i32 0
  store ptr null, ptr %10, align 8, !tbaa !26
  %11 = getelementptr inbounds nuw %class.V3List.1, ptr %6, i32 0, i32 1
  %12 = load ptr, ptr %11, align 8, !tbaa !38
  %13 = load ptr, ptr %5, align 8, !tbaa !24
  %14 = getelementptr inbounds nuw %class.V3ListLinks, ptr %13, i32 0, i32 1
  store ptr %12, ptr %14, align 8, !tbaa !27
  %15 = getelementptr inbounds nuw %class.V3List.1, ptr %6, i32 0, i32 1
  %16 = load ptr, ptr %15, align 8, !tbaa !38
  %17 = icmp ne ptr %16, null
  br i1 %17, label %18, label %24

18:                                               ; preds = %2
  %19 = load ptr, ptr %4, align 8, !tbaa !4
  %20 = getelementptr inbounds nuw %class.V3List.1, ptr %6, i32 0, i32 1
  %21 = load ptr, ptr %20, align 8, !tbaa !38
  %22 = call noundef nonnull align 8 dereferenceable(16) ptr @_ZN6V3ListI13V3GraphVertexXadL_ZNS0_5linksEvEES0_E7toLinksEPKS0_(ptr noundef %21)
  %23 = getelementptr inbounds nuw %class.V3ListLinks, ptr %22, i32 0, i32 0
  store ptr %19, ptr %23, align 8, !tbaa !26
  br label %24

24:                                               ; preds = %18, %2
  %25 = load ptr, ptr %4, align 8, !tbaa !4
  %26 = getelementptr inbounds nuw %class.V3List.1, ptr %6, i32 0, i32 1
  store ptr %25, ptr %26, align 8, !tbaa !38
  %27 = getelementptr inbounds nuw %class.V3List.1, ptr %6, i32 0, i32 0
  %28 = load ptr, ptr %27, align 8, !tbaa !40
  %29 = icmp ne ptr %28, null
  br i1 %29, label %34, label %30

30:                                               ; preds = %24
  %31 = getelementptr inbounds nuw %class.V3List.1, ptr %6, i32 0, i32 1
  %32 = load ptr, ptr %31, align 8, !tbaa !38
  %33 = getelementptr inbounds nuw %class.V3List.1, ptr %6, i32 0, i32 0
  store ptr %32, ptr %33, align 8, !tbaa !40
  br label %34

34:                                               ; preds = %30, %24
  call void @llvm.lifetime.end.p0(i64 8, ptr %5) #3
  ret void
}

; Function Attrs: mustprogress nounwind uwtable
define linkonce_odr dso_local noundef nonnull align 8 dereferenceable(16) ptr @_ZN7V3Graph8verticesEv(ptr noundef nonnull align 8 dereferenceable(24) %0) #5 comdat align 2 {
  %2 = alloca ptr, align 8
  store ptr %0, ptr %2, align 8, !tbaa !9
  %3 = load ptr, ptr %2, align 8
  %4 = getelementptr inbounds nuw %class.V3Graph, ptr %3, i32 0, i32 1
  ret ptr %4
}

; Function Attrs: mustprogress nounwind uwtable
define linkonce_odr dso_local void @_ZN6V3ListI11V3GraphEdgeXadL_ZNS0_6iLinksEvEES0_EC2Ev(ptr noundef nonnull align 8 dereferenceable(16) %0) unnamed_addr #5 comdat align 2 {
  %2 = alloca ptr, align 8
  store ptr %0, ptr %2, align 8, !tbaa !32
  %3 = load ptr, ptr %2, align 8
  %4 = getelementptr inbounds nuw %class.V3List.0, ptr %3, i32 0, i32 0
  store ptr null, ptr %4, align 8, !tbaa !34
  %5 = getelementptr inbounds nuw %class.V3List.0, ptr %3, i32 0, i32 1
  store ptr null, ptr %5, align 8, !tbaa !35
  ret void
}

; Function Attrs: mustprogress nounwind uwtable
define linkonce_odr dso_local void @_ZN6V3ListI11V3GraphEdgeXadL_ZNS0_6oLinksEvEES0_EC2Ev(ptr noundef nonnull align 8 dereferenceable(16) %0) unnamed_addr #5 comdat align 2 {
  %2 = alloca ptr, align 8
  store ptr %0, ptr %2, align 8, !tbaa !28
  %3 = load ptr, ptr %2, align 8
  %4 = getelementptr inbounds nuw %class.V3List, ptr %3, i32 0, i32 0
  store ptr null, ptr %4, align 8, !tbaa !30
  %5 = getelementptr inbounds nuw %class.V3List, ptr %3, i32 0, i32 1
  store ptr null, ptr %5, align 8, !tbaa !31
  ret void
}

; Function Attrs: mustprogress nounwind uwtable
define linkonce_odr dso_local void @_ZN11V3ListLinksI13V3GraphVertexEC2Ev(ptr noundef nonnull align 8 dereferenceable(16) %0) unnamed_addr #5 comdat align 2 {
  %2 = alloca ptr, align 8
  store ptr %0, ptr %2, align 8, !tbaa !24
  %3 = load ptr, ptr %2, align 8
  %4 = getelementptr inbounds nuw %class.V3ListLinks, ptr %3, i32 0, i32 0
  store ptr null, ptr %4, align 8, !tbaa !26
  %5 = getelementptr inbounds nuw %class.V3ListLinks, ptr %3, i32 0, i32 1
  store ptr null, ptr %5, align 8, !tbaa !27
  ret void
}

; Function Attrs: mustprogress uwtable
define dso_local void @_ZN13V3GraphVertexC2EP7V3GraphRKS_(ptr noundef nonnull align 8 dereferenceable(80) %0, ptr noundef %1, ptr noundef nonnull align 8 dereferenceable(80) %2) unnamed_addr #4 align 2 personality ptr @__gxx_personality_v0 {
  %4 = alloca ptr, align 8
  %5 = alloca ptr, align 8
  %6 = alloca ptr, align 8
  %7 = alloca ptr, align 8
  %8 = alloca i32, align 4
  store ptr %0, ptr %4, align 8, !tbaa !4
  store ptr %1, ptr %5, align 8, !tbaa !9
  store ptr %2, ptr %6, align 8, !tbaa !4
  %9 = load ptr, ptr %4, align 8
  store ptr getelementptr inbounds inrange(-16, 104) ({ [15 x ptr] }, ptr @_ZTV13V3GraphVertex, i32 0, i32 0, i32 2), ptr %9, align 8, !tbaa !11
  %10 = getelementptr inbounds nuw %class.V3GraphVertex, ptr %9, i32 0, i32 1
  call void @_ZN11V3ListLinksI13V3GraphVertexEC2Ev(ptr noundef nonnull align 8 dereferenceable(16) %10) #3
  %11 = getelementptr inbounds nuw %class.V3GraphVertex, ptr %9, i32 0, i32 2
  call void @_ZN6V3ListI11V3GraphEdgeXadL_ZNS0_6oLinksEvEES0_EC2Ev(ptr noundef nonnull align 8 dereferenceable(16) %11) #3
  %12 = getelementptr inbounds nuw %class.V3GraphVertex, ptr %9, i32 0, i32 3
  call void @_ZN6V3ListI11V3GraphEdgeXadL_ZNS0_6iLinksEvEES0_EC2Ev(ptr noundef nonnull align 8 dereferenceable(16) %12) #3
  %13 = getelementptr inbounds nuw %class.V3GraphVertex, ptr %9, i32 0, i32 4
  %14 = load ptr, ptr %6, align 8, !tbaa !4
  %15 = getelementptr inbounds nuw %class.V3GraphVertex, ptr %14, i32 0, i32 4
  %16 = load double, ptr %15, align 8, !tbaa !13
  store double %16, ptr %13, align 8, !tbaa !13
  %17 = getelementptr inbounds nuw %class.V3GraphVertex, ptr %9, i32 0, i32 5
  %18 = load ptr, ptr %6, align 8, !tbaa !4
  %19 = getelementptr inbounds nuw %class.V3GraphVertex, ptr %18, i32 0, i32 5
  %20 = load i32, ptr %19, align 8, !tbaa !21
  store i32 %20, ptr %17, align 8, !tbaa !21
  %21 = getelementptr inbounds nuw %class.V3GraphVertex, ptr %9, i32 0, i32 6
  %22 = load ptr, ptr %6, align 8, !tbaa !4
  %23 = getelementptr inbounds nuw %class.V3GraphVertex, ptr %22, i32 0, i32 6
  %24 = load i32, ptr %23, align 4, !tbaa !22
  store i32 %24, ptr %21, align 4, !tbaa !22
  %25 = getelementptr inbounds nuw %class.V3GraphVertex, ptr %9, i32 0, i32 7
  store ptr null, ptr %25, align 8, !tbaa !23
  %26 = load ptr, ptr %5, align 8, !tbaa !9
  %27 = invoke noundef nonnull align 8 dereferenceable(16) ptr @_ZN7V3Graph8verticesEv(ptr noundef nonnull align 8 dereferenceable(24) %26)
          to label %28 unwind label %30

28:                                               ; preds = %3
  invoke void @_ZN6V3ListI13V3GraphVertexXadL_ZNS0_5linksEvEES0_E8linkBackEPKS0_(ptr noundef nonnull align 8 dereferenceable(16) %27, ptr noundef %9)
          to label %29 unwind label %30

29:                                               ; preds = %28
  ret void

30:                                               ; preds = %28, %3
  %31 = landingpad { ptr, i32 }
          cleanup
  %32 = extractvalue { ptr, i32 } %31, 0
  store ptr %32, ptr %7, align 8
  %33 = extractvalue { ptr, i32 } %31, 1
  store i32 %33, ptr %8, align 4
  call void @_ZN6V3ListI11V3GraphEdgeXadL_ZNS0_6iLinksEvEES0_ED2Ev(ptr noundef nonnull align 8 dereferenceable(16) %12) #3
  call void @_ZN6V3ListI11V3GraphEdgeXadL_ZNS0_6oLinksEvEES0_ED2Ev(ptr noundef nonnull align 8 dereferenceable(16) %11) #3
  call void @_ZN11V3ListLinksI13V3GraphVertexED2Ev(ptr noundef nonnull align 8 dereferenceable(16) %10) #3
  br label %34

34:                                               ; preds = %30
  %35 = load ptr, ptr %7, align 8
  %36 = load i32, ptr %8, align 4
  %37 = insertvalue { ptr, i32 } poison, ptr %35, 0
  %38 = insertvalue { ptr, i32 } %37, i32 %36, 1
  resume { ptr, i32 } %38
}