; Function Attrs: mustprogress nofree norecurse nosync nounwind willreturn memory(write, argmem: readwrite, inaccessiblemem: none) uwtable
define dso_local void @_ZN13V3GraphVertexC2EP7V3GraphRKS_(ptr noundef nonnull align 8 dereferenceable(80) initializes((0, 80)) %0, ptr noundef captures(none) %1, ptr noundef nonnull readonly align 8 captures(none) dereferenceable(80) %2) unnamed_addr #3 align 2 personality ptr @__gxx_personality_v0 {
  store ptr getelementptr inbounds nuw inrange(-16, 104) (i8, ptr @_ZTV13V3GraphVertex, i64 16), ptr %0, align 8, !tbaa !4
  %4 = getelementptr inbounds nuw i8, ptr %0, i64 8
  %5 = getelementptr inbounds nuw i8, ptr %0, i64 56
  %6 = getelementptr inbounds nuw i8, ptr %2, i64 56
  tail call void @llvm.memset.p0.i64(ptr noundef nonnull align 8 dereferenceable(48) %4, i8 0, i64 48, i1 false)
  %7 = load double, ptr %6, align 8, !tbaa !7
  store double %7, ptr %5, align 8, !tbaa !7
  %8 = getelementptr inbounds nuw i8, ptr %0, i64 64
  %9 = getelementptr inbounds nuw i8, ptr %2, i64 64
  %10 = load i32, ptr %9, align 8, !tbaa !18
  store i32 %10, ptr %8, align 8, !tbaa !18
  %11 = getelementptr inbounds nuw i8, ptr %0, i64 68
  %12 = getelementptr inbounds nuw i8, ptr %2, i64 68
  %13 = load i32, ptr %12, align 4, !tbaa !19
  store i32 %13, ptr %11, align 4, !tbaa !19
  %14 = getelementptr inbounds nuw i8, ptr %0, i64 72
  store ptr null, ptr %14, align 8, !tbaa !20
  %15 = getelementptr inbounds nuw i8, ptr %1, i64 8
  %16 = getelementptr inbounds nuw i8, ptr %1, i64 16
  %17 = load ptr, ptr %16, align 8, !tbaa !21
  %18 = getelementptr inbounds nuw i8, ptr %0, i64 16
  store ptr %17, ptr %18, align 8, !tbaa !23
  %.not.i = icmp eq ptr %17, null
  br i1 %.not.i, label %21, label %19

19:                                               ; preds = %3
  %20 = getelementptr inbounds nuw i8, ptr %17, i64 8
  store ptr %0, ptr %20, align 8, !tbaa !24
  br label %21

21:                                               ; preds = %19, %3
  store ptr %0, ptr %16, align 8, !tbaa !21
  %22 = load ptr, ptr %15, align 8, !tbaa !25
  %.not6.i = icmp eq ptr %22, null
  br i1 %.not6.i, label %23, label %_ZN6V3ListI13V3GraphVertexXadL_ZNS0_5linksEvEES0_E8linkBackEPKS0_.exit

23:                                               ; preds = %21
  store ptr %0, ptr %15, align 8, !tbaa !25
  br label %_ZN6V3ListI13V3GraphVertexXadL_ZNS0_5linksEvEES0_E8linkBackEPKS0_.exit

_ZN6V3ListI13V3GraphVertexXadL_ZNS0_5linksEvEES0_E8linkBackEPKS0_.exit: ; preds = %23, %21
  ret void
}